target datalayout = "e-m:e-p270:32:32-p271:32:32-p272:64:64-i64:64-i128:128-f80:128-n8:16:32:64-S128"
target triple = "x86_64-pc-linux-gnu"

%struct.blas_arg_t = type { ptr, ptr, ptr, ptr, ptr, ptr, i64, i64, i64, i64, i64, i64, i64, ptr, i64, ptr, i32 }

@dm1 = internal global double -1.000000e+00, align 8

; Function Attrs: nounwind uwtable
define internal void @inner_basic_thread(ptr noundef %0, ptr noundef %1, ptr noundef %2, ptr noundef %3, ptr noundef %4, i64 noundef %5) #0 {
  %7 = alloca ptr, align 8
  %8 = alloca ptr, align 8
  %9 = alloca ptr, align 8
  %10 = alloca ptr, align 8
  %11 = alloca ptr, align 8
  %12 = alloca i64, align 8
  %13 = alloca i64, align 8
  %14 = alloca i64, align 8
  %15 = alloca i64, align 8
  %16 = alloca i64, align 8
  %17 = alloca i64, align 8
  %18 = alloca i64, align 8
  %19 = alloca i64, align 8
  %20 = alloca i64, align 8
  %21 = alloca i64, align 8
  %22 = alloca i64, align 8
  %23 = alloca i64, align 8
  %24 = alloca ptr, align 8
  %25 = alloca ptr, align 8
  %26 = alloca ptr, align 8
  %27 = alloca ptr, align 8
  %28 = alloca ptr, align 8
  %29 = alloca ptr, align 8
  %30 = alloca i64, align 8
  store ptr %0, ptr %7, align 8, !tbaa !3
  store ptr %1, ptr %8, align 8, !tbaa !7
  store ptr %2, ptr %9, align 8, !tbaa !7
  store ptr %3, ptr %10, align 8, !tbaa !9
  store ptr %4, ptr %11, align 8, !tbaa !9
  store i64 %5, ptr %12, align 8, !tbaa !11
  call void @llvm.lifetime.start.p0(i64 8, ptr %13) #6
  call void @llvm.lifetime.start.p0(i64 8, ptr %14) #6
  call void @llvm.lifetime.start.p0(i64 8, ptr %15) #6
  call void @llvm.lifetime.start.p0(i64 8, ptr %16) #6
  call void @llvm.lifetime.start.p0(i64 8, ptr %17) #6
  call void @llvm.lifetime.start.p0(i64 8, ptr %18) #6
  call void @llvm.lifetime.start.p0(i64 8, ptr %19) #6
  %31 = load ptr, ptr %7, align 8, !tbaa !3
  %32 = getelementptr inbounds nuw %struct.blas_arg_t, ptr %31, i32 0, i32 6
  %33 = load i64, ptr %32, align 8, !tbaa !15
  store i64 %33, ptr %19, align 8, !tbaa !11
  call void @llvm.lifetime.start.p0(i64 8, ptr %20) #6
  %34 = load ptr, ptr %7, align 8, !tbaa !3
  %35 = getelementptr inbounds nuw %struct.blas_arg_t, ptr %34, i32 0, i32 7
  %36 = load i64, ptr %35, align 8, !tbaa !17
  store i64 %36, ptr %20, align 8, !tbaa !11
  call void @llvm.lifetime.start.p0(i64 8, ptr %21) #6
  %37 = load ptr, ptr %7, align 8, !tbaa !3
  %38 = getelementptr inbounds nuw %struct.blas_arg_t, ptr %37, i32 0, i32 8
  %39 = load i64, ptr %38, align 8, !tbaa !28
  store i64 %39, ptr %21, align 8, !tbaa !11
  call void @llvm.lifetime.start.p0(i64 8, ptr %22) #6
  %40 = load ptr, ptr %7, align 8, !tbaa !3
  %41 = getelementptr inbounds nuw %struct.blas_arg_t, ptr %40, i32 0, i32 9
  %42 = load i64, ptr %41, align 8, !tbaa !19
  store i64 %42, ptr %22, align 8, !tbaa !11
  call void @llvm.lifetime.start.p0(i64 8, ptr %23) #6
  %43 = load ptr, ptr %7, align 8, !tbaa !3
  %44 = getelementptr inbounds nuw %struct.blas_arg_t, ptr %43, i32 0, i32 10
  %45 = load i64, ptr %44, align 8, !tbaa !29
  store i64 %45, ptr %23, align 8, !tbaa !11
  call void @llvm.lifetime.start.p0(i64 8, ptr %24) #6
  %46 = load ptr, ptr %7, align 8, !tbaa !3
  %47 = getelementptr inbounds nuw %struct.blas_arg_t, ptr %46, i32 0, i32 1
  %48 = load ptr, ptr %47, align 8, !tbaa !26
  %49 = load i64, ptr %21, align 8, !tbaa !11
  %50 = mul nsw i64 %49, 1
  %51 = getelementptr inbounds double, ptr %48, i64 %50
  store ptr %51, ptr %24, align 8, !tbaa !9
  call void @llvm.lifetime.start.p0(i64 8, ptr %25) #6
  %52 = load ptr, ptr %7, align 8, !tbaa !3
  %53 = getelementptr inbounds nuw %struct.blas_arg_t, ptr %52, i32 0, i32 1
  %54 = load ptr, ptr %53, align 8, !tbaa !26
  %55 = load i64, ptr %21, align 8, !tbaa !11
  %56 = load i64, ptr %22, align 8, !tbaa !11
  %57 = mul nsw i64 %55, %56
  %58 = mul nsw i64 %57, 1
  %59 = getelementptr inbounds double, ptr %54, i64 %58
  store ptr %59, ptr %25, align 8, !tbaa !9
  call void @llvm.lifetime.start.p0(i64 8, ptr %26) #6
  %60 = load ptr, ptr %7, align 8, !tbaa !3
  %61 = getelementptr inbounds nuw %struct.blas_arg_t, ptr %60, i32 0, i32 1
  %62 = load ptr, ptr %61, align 8, !tbaa !26
  %63 = load i64, ptr %21, align 8, !tbaa !11
  %64 = load i64, ptr %21, align 8, !tbaa !11
  %65 = load i64, ptr %22, align 8, !tbaa !11
  %66 = mul nsw i64 %64, %65
  %67 = add nsw i64 %63, %66
  %68 = mul nsw i64 %67, 1
  %69 = getelementptr inbounds double, ptr %62, i64 %68
  store ptr %69, ptr %26, align 8, !tbaa !9
  call void @llvm.lifetime.start.p0(i64 8, ptr %27) #6
  %70 = load ptr, ptr %11, align 8, !tbaa !9
  store ptr %70, ptr %27, align 8, !tbaa !9
  call void @llvm.lifetime.start.p0(i64 8, ptr %28) #6
  %71 = load ptr, ptr %7, align 8, !tbaa !3
  %72 = getelementptr inbounds nuw %struct.blas_arg_t, ptr %71, i32 0, i32 3
  %73 = load ptr, ptr %72, align 8, !tbaa !27
  store ptr %73, ptr %28, align 8, !tbaa !7
  call void @llvm.lifetime.start.p0(i64 8, ptr %29) #6
  %74 = load ptr, ptr %7, align 8, !tbaa !3
  %75 = getelementptr inbounds nuw %struct.blas_arg_t, ptr %74, i32 0, i32 2
  %76 = load ptr, ptr %75, align 8, !tbaa !20
  store ptr %76, ptr %29, align 8, !tbaa !21
  %77 = load ptr, ptr %9, align 8, !tbaa !7
  %78 = icmp ne ptr %77, null
  br i1 %78, label %79, label %103

79:                                               ; preds = %6
  %80 = load ptr, ptr %9, align 8, !tbaa !7
  %81 = getelementptr inbounds i64, ptr %80, i64 1
  %82 = load i64, ptr %81, align 8, !tbaa !11
  %83 = load ptr, ptr %9, align 8, !tbaa !7
  %84 = getelementptr inbounds i64, ptr %83, i64 0
  %85 = load i64, ptr %84, align 8, !tbaa !11
  %86 = sub nsw i64 %82, %85
  store i64 %86, ptr %20, align 8, !tbaa !11
  %87 = load ptr, ptr %9, align 8, !tbaa !7
  %88 = getelementptr inbounds i64, ptr %87, i64 0
  %89 = load i64, ptr %88, align 8, !tbaa !11
  %90 = load i64, ptr %22, align 8, !tbaa !11
  %91 = mul nsw i64 %89, %90
  %92 = mul nsw i64 %91, 1
  %93 = load ptr, ptr %25, align 8, !tbaa !9
  %94 = getelementptr inbounds double, ptr %93, i64 %92
  store ptr %94, ptr %25, align 8, !tbaa !9
  %95 = load ptr, ptr %9, align 8, !tbaa !7
  %96 = getelementptr inbounds i64, ptr %95, i64 0
  %97 = load i64, ptr %96, align 8, !tbaa !11
  %98 = load i64, ptr %22, align 8, !tbaa !11
  %99 = mul nsw i64 %97, %98
  %100 = mul nsw i64 %99, 1
  %101 = load ptr, ptr %26, align 8, !tbaa !9
  %102 = getelementptr inbounds double, ptr %101, i64 %100
  store ptr %102, ptr %26, align 8, !tbaa !9
  br label %103

103:                                              ; preds = %79, %6
  %104 = load ptr, ptr %7, align 8, !tbaa !3
  %105 = getelementptr inbounds nuw %struct.blas_arg_t, ptr %104, i32 0, i32 0
  %106 = load ptr, ptr %105, align 8, !tbaa !18
  %107 = icmp eq ptr %106, null
  br i1 %107, label %108, label %128

108:                                              ; preds = %103
  %109 = load i64, ptr %21, align 8, !tbaa !11
  %110 = load i64, ptr %21, align 8, !tbaa !11
  %111 = load ptr, ptr %7, align 8, !tbaa !3
  %112 = getelementptr inbounds nuw %struct.blas_arg_t, ptr %111, i32 0, i32 1
  %113 = load ptr, ptr %112, align 8, !tbaa !26
  %114 = load i64, ptr %22, align 8, !tbaa !11
  %115 = load ptr, ptr %11, align 8, !tbaa !9
  %116 = call i32 @dtrsm_iltucopy(i64 noundef %109, i64 noundef %110, ptr noundef %113, i64 noundef %114, i64 noundef 0, ptr noundef %115)
  %117 = load ptr, ptr %11, align 8, !tbaa !9
  %118 = load i64, ptr %21, align 8, !tbaa !11
  %119 = load i64, ptr %21, align 8, !tbaa !11
  %120 = mul nsw i64 %118, %119
  %121 = mul nsw i64 %120, 1
  %122 = getelementptr inbounds double, ptr %117, i64 %121
  %123 = ptrtoint ptr %122 to i64
  %124 = add i64 %123, 16383
  %125 = and i64 %124, -16384
  %126 = add i64 %125, 0
  %127 = inttoptr i64 %126 to ptr
  store ptr %127, ptr %27, align 8, !tbaa !9
  br label %132

128:                                              ; preds = %103
  %129 = load ptr, ptr %7, align 8, !tbaa !3
  %130 = getelementptr inbounds nuw %struct.blas_arg_t, ptr %129, i32 0, i32 0
  %131 = load ptr, ptr %130, align 8, !tbaa !18
  store ptr %131, ptr %11, align 8, !tbaa !9
  br label %132

132:                                              ; preds = %128, %108
  store i64 0, ptr %15, align 8, !tbaa !11
  br label %133

133:                                              ; preds = %305, %132
  %134 = load i64, ptr %15, align 8, !tbaa !11
  %135 = load i64, ptr %20, align 8, !tbaa !11
  %136 = icmp slt i64 %134, %135
  br i1 %136, label %137, label %308

137:                                              ; preds = %133
  %138 = load i64, ptr %20, align 8, !tbaa !11
  %139 = load i64, ptr %15, align 8, !tbaa !11
  %140 = sub nsw i64 %138, %139
  store i64 %140, ptr %16, align 8, !tbaa !11
  %141 = load i64, ptr %16, align 8, !tbaa !11
  %142 = icmp sgt i64 %141, 8256
  br i1 %142, label %143, label %144

143:                                              ; preds = %137
  store i64 8256, ptr %16, align 8, !tbaa !11
  br label %144

144:                                              ; preds = %143, %137
  %145 = load i64, ptr %15, align 8, !tbaa !11
  store i64 %145, ptr %17, align 8, !tbaa !11
  br label %146

146:                                              ; preds = %243, %144
  %147 = load i64, ptr %17, align 8, !tbaa !11
  %148 = load i64, ptr %15, align 8, !tbaa !11
  %149 = load i64, ptr %16, align 8, !tbaa !11
  %150 = add nsw i64 %148, %149
  %151 = icmp slt i64 %147, %150
  br i1 %151, label %152, label %246

152:                                              ; preds = %146
  %153 = load i64, ptr %15, align 8, !tbaa !11
  %154 = load i64, ptr %16, align 8, !tbaa !11
  %155 = add nsw i64 %153, %154
  %156 = load i64, ptr %17, align 8, !tbaa !11
  %157 = sub nsw i64 %155, %156
  store i64 %157, ptr %18, align 8, !tbaa !11
  %158 = load i64, ptr %18, align 8, !tbaa !11
  %159 = icmp sgt i64 %158, 2
  br i1 %159, label %160, label %161

160:                                              ; preds = %152
  store i64 2, ptr %18, align 8, !tbaa !11
  br label %161

161:                                              ; preds = %160, %152
  %162 = load i64, ptr %18, align 8, !tbaa !11
  %163 = load i64, ptr %23, align 8, !tbaa !11
  %164 = add nsw i64 %163, 1
  %165 = load i64, ptr %23, align 8, !tbaa !11
  %166 = load i64, ptr %21, align 8, !tbaa !11
  %167 = add nsw i64 %165, %166
  %168 = load ptr, ptr %25, align 8, !tbaa !9
  %169 = load i64, ptr %23, align 8, !tbaa !11
  %170 = sub nsw i64 0, %169
  %171 = load i64, ptr %17, align 8, !tbaa !11
  %172 = load i64, ptr %22, align 8, !tbaa !11
  %173 = mul nsw i64 %171, %172
  %174 = add nsw i64 %170, %173
  %175 = mul nsw i64 %174, 1
  %176 = getelementptr inbounds double, ptr %168, i64 %175
  %177 = load i64, ptr %22, align 8, !tbaa !11
  %178 = load ptr, ptr %29, align 8, !tbaa !21
  %179 = call i32 @dlaswp_plus(i64 noundef %162, i64 noundef %164, i64 noundef %167, double noundef 0.000000e+00, ptr noundef %176, i64 noundef %177, ptr noundef null, i64 noundef 0, ptr noundef %178, i64 noundef 1)
  %180 = load i64, ptr %21, align 8, !tbaa !11
  %181 = load i64, ptr %18, align 8, !tbaa !11
  %182 = load ptr, ptr %25, align 8, !tbaa !9
  %183 = load i64, ptr %17, align 8, !tbaa !11
  %184 = load i64, ptr %22, align 8, !tbaa !11
  %185 = mul nsw i64 %183, %184
  %186 = mul nsw i64 %185, 1
  %187 = getelementptr inbounds double, ptr %182, i64 %186
  %188 = load i64, ptr %22, align 8, !tbaa !11
  %189 = load ptr, ptr %27, align 8, !tbaa !9
  %190 = load i64, ptr %17, align 8, !tbaa !11
  %191 = load i64, ptr %15, align 8, !tbaa !11
  %192 = sub nsw i64 %190, %191
  %193 = load i64, ptr %21, align 8, !tbaa !11
  %194 = mul nsw i64 %192, %193
  %195 = mul nsw i64 %194, 1
  %196 = getelementptr inbounds double, ptr %189, i64 %195
  %197 = call i32 @dgemm_oncopy(i64 noundef %180, i64 noundef %181, ptr noundef %187, i64 noundef %188, ptr noundef %196)
  store i64 0, ptr %13, align 8, !tbaa !11
  br label %198

198:                                              ; preds = %239, %161
  %199 = load i64, ptr %13, align 8, !tbaa !11
  %200 = load i64, ptr %21, align 8, !tbaa !11
  %201 = icmp slt i64 %199, %200
  br i1 %201, label %202, label %242

202:                                              ; preds = %198
  %203 = load i64, ptr %21, align 8, !tbaa !11
  %204 = load i64, ptr %13, align 8, !tbaa !11
  %205 = sub nsw i64 %203, %204
  store i64 %205, ptr %14, align 8, !tbaa !11
  %206 = load i64, ptr %14, align 8, !tbaa !11
  %207 = icmp sgt i64 %206, 192
  br i1 %207, label %208, label %209

208:                                              ; preds = %202
  store i64 192, ptr %14, align 8, !tbaa !11
  br label %209

209:                                              ; preds = %208, %202
  %210 = load i64, ptr %14, align 8, !tbaa !11
  %211 = load i64, ptr %18, align 8, !tbaa !11
  %212 = load i64, ptr %21, align 8, !tbaa !11
  %213 = load double, ptr @dm1, align 8, !tbaa !51
  %214 = load ptr, ptr %11, align 8, !tbaa !9
  %215 = load i64, ptr %21, align 8, !tbaa !11
  %216 = load i64, ptr %13, align 8, !tbaa !11
  %217 = mul nsw i64 %215, %216
  %218 = mul nsw i64 %217, 1
  %219 = getelementptr inbounds double, ptr %214, i64 %218
  %220 = load ptr, ptr %27, align 8, !tbaa !9
  %221 = load i64, ptr %17, align 8, !tbaa !11
  %222 = load i64, ptr %15, align 8, !tbaa !11
  %223 = sub nsw i64 %221, %222
  %224 = load i64, ptr %21, align 8, !tbaa !11
  %225 = mul nsw i64 %223, %224
  %226 = mul nsw i64 %225, 1
  %227 = getelementptr inbounds double, ptr %220, i64 %226
  %228 = load ptr, ptr %25, align 8, !tbaa !9
  %229 = load i64, ptr %13, align 8, !tbaa !11
  %230 = load i64, ptr %17, align 8, !tbaa !11
  %231 = load i64, ptr %22, align 8, !tbaa !11
  %232 = mul nsw i64 %230, %231
  %233 = add nsw i64 %229, %232
  %234 = mul nsw i64 %233, 1
  %235 = getelementptr inbounds double, ptr %228, i64 %234
  %236 = load i64, ptr %22, align 8, !tbaa !11
  %237 = load i64, ptr %13, align 8, !tbaa !11
  %238 = call i32 @dtrsm_kernel_LT(i64 noundef %210, i64 noundef %211, i64 noundef %212, double noundef %213, ptr noundef %219, ptr noundef %227, ptr noundef %235, i64 noundef %236, i64 noundef %237)
  br label %239

239:                                              ; preds = %209
  %240 = load i64, ptr %13, align 8, !tbaa !11
  %241 = add nsw i64 %240, 192
  store i64 %241, ptr %13, align 8, !tbaa !11
  br label %198, !llvm.loop !76

242:                                              ; preds = %198
  br label %243

243:                                              ; preds = %242
  %244 = load i64, ptr %17, align 8, !tbaa !11
  %245 = add nsw i64 %244, 2
  store i64 %245, ptr %17, align 8, !tbaa !11
  br label %146, !llvm.loop !77

246:                                              ; preds = %146
  %247 = load i64, ptr %15, align 8, !tbaa !11
  %248 = add nsw i64 %247, 8256
  %249 = load i64, ptr %20, align 8, !tbaa !11
  %250 = icmp sge i64 %248, %249
  br i1 %250, label %251, label %263

251:                                              ; preds = %246
  %252 = load i64, ptr %12, align 8, !tbaa !11
  %253 = icmp sge i64 %252, 0
  br i1 %253, label %254, label %263

254:                                              ; preds = %251
  br label %255

255:                                              ; preds = %254
  call void asm sideeffect "", "~{memory},~{dirflag},~{fpsr},~{flags}"() #6, !srcloc !78
  br label %256

256:                                              ; preds = %255
  br label %257

257:                                              ; preds = %256
  %258 = load ptr, ptr %28, align 8, !tbaa !7
  %259 = load i64, ptr %12, align 8, !tbaa !11
  %260 = mul nsw i64 %259, 8
  %261 = getelementptr inbounds i64, ptr %258, i64 %260
  store i64 0, ptr %30, align 8, !tbaa !11
  %262 = load i64, ptr %30, align 8
  store atomic volatile i64 %262, ptr %261 monotonic, align 8
  br label %263

263:                                              ; preds = %257, %251, %246
  store i64 0, ptr %13, align 8, !tbaa !11
  br label %264

264:                                              ; preds = %301, %263
  %265 = load i64, ptr %13, align 8, !tbaa !11
  %266 = load i64, ptr %19, align 8, !tbaa !11
  %267 = icmp slt i64 %265, %266
  br i1 %267, label %268, label %304

268:                                              ; preds = %264
  %269 = load i64, ptr %19, align 8, !tbaa !11
  %270 = load i64, ptr %13, align 8, !tbaa !11
  %271 = sub nsw i64 %269, %270
  store i64 %271, ptr %14, align 8, !tbaa !11
  %272 = load i64, ptr %14, align 8, !tbaa !11
  %273 = icmp sgt i64 %272, 192
  br i1 %273, label %274, label %275

274:                                              ; preds = %268
  store i64 192, ptr %14, align 8, !tbaa !11
  br label %275

275:                                              ; preds = %274, %268
  %276 = load i64, ptr %21, align 8, !tbaa !11
  %277 = load i64, ptr %14, align 8, !tbaa !11
  %278 = load ptr, ptr %24, align 8, !tbaa !9
  %279 = load i64, ptr %13, align 8, !tbaa !11
  %280 = mul nsw i64 %279, 1
  %281 = getelementptr inbounds double, ptr %278, i64 %280
  %282 = load i64, ptr %22, align 8, !tbaa !11
  %283 = load ptr, ptr %10, align 8, !tbaa !9
  %284 = call i32 @dgemm_itcopy(i64 noundef %276, i64 noundef %277, ptr noundef %281, i64 noundef %282, ptr noundef %283)
  %285 = load i64, ptr %14, align 8, !tbaa !11
  %286 = load i64, ptr %16, align 8, !tbaa !11
  %287 = load i64, ptr %21, align 8, !tbaa !11
  %288 = load double, ptr @dm1, align 8, !tbaa !51
  %289 = load ptr, ptr %10, align 8, !tbaa !9
  %290 = load ptr, ptr %27, align 8, !tbaa !9
  %291 = load ptr, ptr %26, align 8, !tbaa !9
  %292 = load i64, ptr %13, align 8, !tbaa !11
  %293 = load i64, ptr %15, align 8, !tbaa !11
  %294 = load i64, ptr %22, align 8, !tbaa !11
  %295 = mul nsw i64 %293, %294
  %296 = add nsw i64 %292, %295
  %297 = mul nsw i64 %296, 1
  %298 = getelementptr inbounds double, ptr %291, i64 %297
  %299 = load i64, ptr %22, align 8, !tbaa !11
  %300 = call i32 @dgemm_kernel(i64 noundef %285, i64 noundef %286, i64 noundef %287, double noundef %288, ptr noundef %289, ptr noundef %290, ptr noundef %298, i64 noundef %299)
  br label %301

301:                                              ; preds = %275
  %302 = load i64, ptr %13, align 8, !tbaa !11
  %303 = add nsw i64 %302, 192
  store i64 %303, ptr %13, align 8, !tbaa !11
  br label %264, !llvm.loop !79

304:                                              ; preds = %264
  br label %305

305:                                              ; preds = %304
  %306 = load i64, ptr %15, align 8, !tbaa !11
  %307 = add nsw i64 %306, 8256
  store i64 %307, ptr %15, align 8, !tbaa !11
  br label %133, !llvm.loop !80

308:                                              ; preds = %133
  call void @llvm.lifetime.end.p0(i64 8, ptr %29) #6
  call void @llvm.lifetime.end.p0(i64 8, ptr %28) #6
  call void @llvm.lifetime.end.p0(i64 8, ptr %27) #6
  call void @llvm.lifetime.end.p0(i64 8, ptr %26) #6
  call void @llvm.lifetime.end.p0(i64 8, ptr %25) #6
  call void @llvm.lifetime.end.p0(i64 8, ptr %24) #6
  call void @llvm.lifetime.end.p0(i64 8, ptr %23) #6
  call void @llvm.lifetime.end.p0(i64 8, ptr %22) #6
  call void @llvm.lifetime.end.p0(i64 8, ptr %21) #6
  call void @llvm.lifetime.end.p0(i64 8, ptr %20) #6
  call void @llvm.lifetime.end.p0(i64 8, ptr %19) #6
  call void @llvm.lifetime.end.p0(i64 8, ptr %18) #6
  call void @llvm.lifetime.end.p0(i64 8, ptr %17) #6
  call void @llvm.lifetime.end.p0(i64 8, ptr %16) #6
  call void @llvm.lifetime.end.p0(i64 8, ptr %15) #6
  call void @llvm.lifetime.end.p0(i64 8, ptr %14) #6
  call void @llvm.lifetime.end.p0(i64 8, ptr %13) #6
  ret void
}