; Function Attrs: nounwind uwtable
define internal fastcc void @inner_basic_thread(ptr noundef nonnull readonly captures(none) %0, i64 %.0.val, i64 %.8.val, ptr noundef %1, ptr noundef %2) unnamed_addr #0 {
  %4 = getelementptr inbounds nuw i8, ptr %0, i64 48
  %5 = load i64, ptr %4, align 8, !tbaa !3
  %6 = getelementptr inbounds nuw i8, ptr %0, i64 64
  %7 = load i64, ptr %6, align 8, !tbaa !21
  %8 = getelementptr inbounds nuw i8, ptr %0, i64 72
  %9 = load i64, ptr %8, align 8, !tbaa !12
  %10 = getelementptr inbounds nuw i8, ptr %0, i64 80
  %11 = load i64, ptr %10, align 8, !tbaa !22
  %12 = getelementptr inbounds nuw i8, ptr %0, i64 8
  %13 = load ptr, ptr %12, align 8, !tbaa !19
  %14 = getelementptr double, ptr %13, i64 %7
  %15 = getelementptr inbounds nuw i8, ptr %0, i64 16
  %16 = load ptr, ptr %15, align 8, !tbaa !13
  %17 = mul nsw i64 %9, %7
  %18 = getelementptr double, ptr %14, i64 %17
  %19 = getelementptr inbounds double, ptr %13, i64 %17
  %20 = sub nsw i64 %.8.val, %.0.val
  %21 = mul nsw i64 %9, %.0.val
  %22 = getelementptr inbounds double, ptr %19, i64 %21
  %23 = getelementptr inbounds double, ptr %18, i64 %21
  %24 = load ptr, ptr %0, align 8, !tbaa !11
  %25 = icmp eq ptr %24, null
  br i1 %25, label %26, label %34

26:                                               ; preds = %3
  %27 = tail call i32 @dtrsm_iltucopy(i64 noundef %7, i64 noundef %7, ptr noundef %13, i64 noundef %9, i64 noundef 0, ptr noundef %2) #6
  %28 = mul nsw i64 %7, %7
  %29 = getelementptr inbounds nuw double, ptr %2, i64 %28
  %30 = ptrtoint ptr %29 to i64
  %31 = add i64 %30, 16383
  %32 = and i64 %31, -16384
  %33 = inttoptr i64 %32 to ptr
  br label %34

34:                                               ; preds = %3, %26
  %.0125 = phi ptr [ %33, %26 ], [ %2, %3 ]
  %.0 = phi ptr [ %2, %26 ], [ %24, %3 ]
  %35 = icmp sgt i64 %20, 0
  br i1 %35, label %.lr.ph13, label %._crit_edge14

.lr.ph13:                                         ; preds = %34
  %36 = add nsw i64 %11, 1
  %37 = add nsw i64 %11, %7
  %38 = icmp sgt i64 %7, 0
  %39 = icmp sgt i64 %5, 0
  br label %41

.loopexit:                                        ; preds = %65, %._crit_edge5
  %40 = icmp slt i64 %63, %20
  br i1 %40, label %41, label %._crit_edge14, !llvm.loop !64

41:                                               ; preds = %.lr.ph13, %.loopexit
  %.012811 = phi i64 [ 0, %.lr.ph13 ], [ %63, %.loopexit ]
  %42 = sub nsw i64 %20, %.012811
  %spec.store.select = tail call i64 @llvm.smin.i64(i64 %42, i64 8256)
  %43 = add nsw i64 %spec.store.select, %.012811
  %44 = icmp sgt i64 %42, 0
  br i1 %44, label %.lr.ph4, label %._crit_edge5

.lr.ph4:                                          ; preds = %41, %._crit_edge
  %.01292 = phi i64 [ %61, %._crit_edge ], [ %.012811, %41 ]
  %45 = sub nsw i64 %43, %.01292
  %spec.store.select1 = tail call i64 @llvm.smin.i64(i64 %45, i64 2)
  %46 = mul nsw i64 %.01292, %9
  %47 = sub nsw i64 %46, %11
  %48 = getelementptr inbounds double, ptr %22, i64 %47
  %49 = tail call i32 @dlaswp_plus(i64 noundef %spec.store.select1, i64 noundef %36, i64 noundef %37, double noundef 0.000000e+00, ptr noundef %48, i64 noundef %9, ptr noundef null, i64 noundef 0, ptr noundef %16, i64 noundef 1) #6
  %50 = getelementptr double, ptr %22, i64 %46
  %51 = sub nuw nsw i64 %.01292, %.012811
  %52 = mul nsw i64 %51, %7
  %53 = getelementptr inbounds double, ptr %.0125, i64 %52
  %54 = tail call i32 @dgemm_oncopy(i64 noundef %7, i64 noundef %spec.store.select1, ptr noundef %50, i64 noundef %9, ptr noundef %53) #6
  br i1 %38, label %.lr.ph, label %._crit_edge

.lr.ph:                                           ; preds = %.lr.ph4, %.lr.ph
  %.01241 = phi i64 [ %59, %.lr.ph ], [ 0, %.lr.ph4 ]
  %55 = sub nsw i64 %7, %.01241
  %spec.store.select2 = tail call i64 @llvm.smin.i64(i64 %55, i64 192)
  %56 = mul nuw nsw i64 %.01241, %7
  %57 = getelementptr inbounds nuw double, ptr %.0, i64 %56
  %gep = getelementptr double, ptr %50, i64 %.01241
  %58 = tail call i32 @dtrsm_kernel_LT(i64 noundef %spec.store.select2, i64 noundef %spec.store.select1, i64 noundef %7, double noundef -1.000000e+00, ptr noundef %57, ptr noundef %53, ptr noundef %gep, i64 noundef %9, i64 noundef %.01241) #6
  %59 = add nuw nsw i64 %.01241, 192
  %60 = icmp slt i64 %59, %7
  br i1 %60, label %.lr.ph, label %._crit_edge, !llvm.loop !65

._crit_edge:                                      ; preds = %.lr.ph, %.lr.ph4
  %61 = add nuw nsw i64 %.01292, 2
  %62 = icmp slt i64 %61, %43
  br i1 %62, label %.lr.ph4, label %._crit_edge5, !llvm.loop !66

._crit_edge5:                                     ; preds = %._crit_edge, %41
  %63 = add nuw nsw i64 %.012811, 8256
  br i1 %39, label %.lr.ph8, label %.loopexit

.lr.ph8:                                          ; preds = %._crit_edge5
  %64 = mul nsw i64 %.012811, %9
  %invariant.gep9 = getelementptr double, ptr %23, i64 %64
  br label %65

65:                                               ; preds = %.lr.ph8, %65
  %.16 = phi i64 [ 0, %.lr.ph8 ], [ %70, %65 ]
  %66 = sub nsw i64 %5, %.16
  %spec.store.select4 = tail call i64 @llvm.smin.i64(i64 %66, i64 192)
  %67 = getelementptr inbounds nuw double, ptr %14, i64 %.16
  %68 = tail call i32 @dgemm_itcopy(i64 noundef %7, i64 noundef %spec.store.select4, ptr noundef %67, i64 noundef %9, ptr noundef %1) #6
  %gep10 = getelementptr double, ptr %invariant.gep9, i64 %.16
  %69 = tail call i32 @dgemm_kernel(i64 noundef %spec.store.select4, i64 noundef %spec.store.select, i64 noundef %7, double noundef -1.000000e+00, ptr noundef %1, ptr noundef %.0125, ptr noundef %gep10, i64 noundef %9) #6
  %70 = add nuw nsw i64 %.16, 192
  %71 = icmp slt i64 %70, %5
  br i1 %71, label %65, label %.loopexit, !llvm.loop !67

._crit_edge14:                                    ; preds = %.loopexit, %34
  ret void
}